; Function Attrs: mustprogress uwtable
define noundef i32 @_ZN12colvarmodule10atom_group9set_dummyEv(ptr noundef nonnull align 8 dereferenceable(1440) %0) local_unnamed_addr #2 align 2 personality ptr @__gxx_personality_v0 {
  %2 = alloca %"class.std::__cxx11::basic_string", align 8
  %3 = alloca %"class.std::__cxx11::basic_string", align 8
  %4 = alloca %"class.std::__cxx11::basic_string", align 8
  %5 = alloca %"class.std::__cxx11::basic_string", align 8
  %6 = getelementptr inbounds i8, ptr %0, i64 528
  %7 = getelementptr inbounds i8, ptr %0, i64 536
  %8 = load ptr, ptr %7, align 8
  %9 = load ptr, ptr %6, align 8
  %.not = icmp eq ptr %8, %9
  br i1 %.not, label %32, label %10

10:                                               ; preds = %1
  %11 = getelementptr inbounds i8, ptr %0, i64 472
  call void @_ZStplIcSt11char_traitsIcESaIcEENSt7__cxx1112basic_stringIT_T0_T1_EEPKS5_RKS8_(ptr dead_on_unwind nonnull writable sret(%"class.std::__cxx11::basic_string") align 8 %5, ptr noundef nonnull @.str.6, ptr noundef nonnull align 8 dereferenceable(32) %11)
  %12 = invoke noundef nonnull align 8 dereferenceable(32) ptr @_ZNSt7__cxx1112basic_stringIcSt11char_traitsIcESaIcEE6appendEPKc(ptr noundef nonnull align 8 dereferenceable(32) %5, ptr noundef nonnull @.str.7)
          to label %13 unwind label %21

13:                                               ; preds = %10
  call void @_ZNSt7__cxx1112basic_stringIcSt11char_traitsIcESaIcEEC1EOS4_(ptr noundef nonnull align 8 dereferenceable(32) %4, ptr noundef nonnull align 8 dereferenceable(32) %12) #25
  %14 = getelementptr inbounds i8, ptr %0, i64 440
  %15 = invoke noundef nonnull align 8 dereferenceable(32) ptr @_ZNSt7__cxx1112basic_stringIcSt11char_traitsIcESaIcEE6appendERKS4_(ptr noundef nonnull align 8 dereferenceable(32) %4, ptr noundef nonnull align 8 dereferenceable(32) %14)
          to label %16 unwind label %23

16:                                               ; preds = %13
  call void @_ZNSt7__cxx1112basic_stringIcSt11char_traitsIcESaIcEEC1EOS4_(ptr noundef nonnull align 8 dereferenceable(32) %3, ptr noundef nonnull align 8 dereferenceable(32) %15) #25
  %17 = invoke noundef nonnull align 8 dereferenceable(32) ptr @_ZNSt7__cxx1112basic_stringIcSt11char_traitsIcESaIcEE6appendEPKc(ptr noundef nonnull align 8 dereferenceable(32) %3, ptr noundef nonnull @.str.8)
          to label %18 unwind label %25

18:                                               ; preds = %16
  call void @_ZNSt7__cxx1112basic_stringIcSt11char_traitsIcESaIcEEC1EOS4_(ptr noundef nonnull align 8 dereferenceable(32) %2, ptr noundef nonnull align 8 dereferenceable(32) %17) #25
  %19 = invoke noundef i32 @_ZN12colvarmodule5errorERKNSt7__cxx1112basic_stringIcSt11char_traitsIcESaIcEEEi(ptr noundef nonnull align 8 dereferenceable(32) %2, i32 noundef 4)
          to label %20 unwind label %27

20:                                               ; preds = %18
  call void @_ZNSt7__cxx1112basic_stringIcSt11char_traitsIcESaIcEED1Ev(ptr noundef nonnull align 8 dereferenceable(32) %2) #25
  call void @_ZNSt7__cxx1112basic_stringIcSt11char_traitsIcESaIcEED1Ev(ptr noundef nonnull align 8 dereferenceable(32) %3) #25
  call void @_ZNSt7__cxx1112basic_stringIcSt11char_traitsIcESaIcEED1Ev(ptr noundef nonnull align 8 dereferenceable(32) %4) #25
  call void @_ZNSt7__cxx1112basic_stringIcSt11char_traitsIcESaIcEED1Ev(ptr noundef nonnull align 8 dereferenceable(32) %5) #25
  br label %34

21:                                               ; preds = %10
  %22 = landingpad { ptr, i32 }
          cleanup
  br label %31

23:                                               ; preds = %13
  %24 = landingpad { ptr, i32 }
          cleanup
  br label %30

25:                                               ; preds = %16
  %26 = landingpad { ptr, i32 }
          cleanup
  br label %29

27:                                               ; preds = %18
  %28 = landingpad { ptr, i32 }
          cleanup
  call void @_ZNSt7__cxx1112basic_stringIcSt11char_traitsIcESaIcEED1Ev(ptr noundef nonnull align 8 dereferenceable(32) %2) #25
  br label %29

29:                                               ; preds = %27, %25
  %.pn = phi { ptr, i32 } [ %28, %27 ], [ %26, %25 ]
  call void @_ZNSt7__cxx1112basic_stringIcSt11char_traitsIcESaIcEED1Ev(ptr noundef nonnull align 8 dereferenceable(32) %3) #25
  br label %30

30:                                               ; preds = %29, %23
  %.pn.pn = phi { ptr, i32 } [ %.pn, %29 ], [ %24, %23 ]
  call void @_ZNSt7__cxx1112basic_stringIcSt11char_traitsIcESaIcEED1Ev(ptr noundef nonnull align 8 dereferenceable(32) %4) #25
  br label %31

31:                                               ; preds = %30, %21
  %.pn.pn.pn = phi { ptr, i32 } [ %.pn.pn, %30 ], [ %22, %21 ]
  call void @_ZNSt7__cxx1112basic_stringIcSt11char_traitsIcESaIcEED1Ev(ptr noundef nonnull align 8 dereferenceable(32) %5) #25
  resume { ptr, i32 } %.pn.pn.pn

32:                                               ; preds = %1
  %33 = getelementptr inbounds i8, ptr %0, i64 628
  store i8 1, ptr %33, align 4
  br label %34

34:                                               ; preds = %32, %20
  %.06 = phi i32 [ %19, %20 ], [ 0, %32 ]
  ret i32 %.06
}